target datalayout = "e-m:e-p270:32:32-p271:32:32-p272:64:64-i64:64-i128:128-f80:128-n8:16:32:64-S128"
target triple = "x86_64-pc-linux-gnu"

%struct.fdt_header = type { i32, i32, i32, i32, i32, i32, i32, i32, i32, i32 }
%struct.fdt_property = type { i32, i32, i32, [0 x i8] }

@.str = private unnamed_addr constant [8 x i8] c"phandle\00", align 1
@.str.1 = private unnamed_addr constant [14 x i8] c"linux,phandle\00", align 1

; Function Attrs: nounwind uwtable
define ptr @fdt_getprop_namelen(ptr noundef %0, i32 noundef %1, ptr noundef %2, i32 noundef %3, ptr noundef %4) #0 {
  %6 = alloca ptr, align 8
  %7 = alloca ptr, align 8
  %8 = alloca i32, align 4
  %9 = alloca ptr, align 8
  %10 = alloca i32, align 4
  %11 = alloca ptr, align 8
  %12 = alloca i32, align 4
  %13 = alloca ptr, align 8
  %14 = alloca i32, align 4
  store ptr %0, ptr %7, align 8, !tbaa !3
  store i32 %1, ptr %8, align 4, !tbaa !7
  store ptr %2, ptr %9, align 8, !tbaa !13
  store i32 %3, ptr %10, align 4, !tbaa !7
  store ptr %4, ptr %11, align 8, !tbaa !9
  call void @llvm.lifetime.start.p0(i64 4, ptr %12) #6
  call void @llvm.lifetime.start.p0(i64 8, ptr %13) #6
  %15 = load ptr, ptr %7, align 8, !tbaa !3
  %16 = load i32, ptr %8, align 4, !tbaa !7
  %17 = load ptr, ptr %9, align 8, !tbaa !13
  %18 = load i32, ptr %10, align 4, !tbaa !7
  %19 = load ptr, ptr %11, align 8, !tbaa !9
  %20 = call ptr @fdt_get_property_namelen_(ptr noundef %15, i32 noundef %16, ptr noundef %17, i32 noundef %18, ptr noundef %19, ptr noundef %12)
  store ptr %20, ptr %13, align 8, !tbaa !28
  %21 = load ptr, ptr %13, align 8, !tbaa !28
  %22 = icmp ne ptr %21, null
  br i1 %22, label %24, label %23

23:                                               ; preds = %5
  store ptr null, ptr %6, align 8
  store i32 1, ptr %14, align 4
  br label %49

24:                                               ; preds = %5
  %25 = load ptr, ptr %7, align 8, !tbaa !3
  %26 = getelementptr inbounds nuw %struct.fdt_header, ptr %25, i32 0, i32 5
  %27 = call i32 @fdt32_ld(ptr noundef %26)
  %28 = icmp ult i32 %27, 16
  br i1 %28, label %29, label %45

29:                                               ; preds = %24
  %30 = load i32, ptr %12, align 4, !tbaa !7
  %31 = sext i32 %30 to i64
  %32 = add i64 %31, 12
  %33 = urem i64 %32, 8
  %34 = icmp ne i64 %33, 0
  br i1 %34, label %35, label %45

35:                                               ; preds = %29
  %36 = load ptr, ptr %13, align 8, !tbaa !28
  %37 = getelementptr inbounds nuw %struct.fdt_property, ptr %36, i32 0, i32 1
  %38 = call i32 @fdt32_ld(ptr noundef %37)
  %39 = icmp uge i32 %38, 8
  br i1 %39, label %40, label %45

40:                                               ; preds = %35
  %41 = load ptr, ptr %13, align 8, !tbaa !28
  %42 = getelementptr inbounds nuw %struct.fdt_property, ptr %41, i32 0, i32 3
  %43 = getelementptr inbounds [0 x i8], ptr %42, i64 0, i64 0
  %44 = getelementptr inbounds i8, ptr %43, i64 4
  store ptr %44, ptr %6, align 8
  store i32 1, ptr %14, align 4
  br label %49

45:                                               ; preds = %35, %29, %24
  %46 = load ptr, ptr %13, align 8, !tbaa !28
  %47 = getelementptr inbounds nuw %struct.fdt_property, ptr %46, i32 0, i32 3
  %48 = getelementptr inbounds [0 x i8], ptr %47, i64 0, i64 0
  store ptr %48, ptr %6, align 8
  store i32 1, ptr %14, align 4
  br label %49

49:                                               ; preds = %45, %40, %23
  call void @llvm.lifetime.end.p0(i64 8, ptr %13) #6
  call void @llvm.lifetime.end.p0(i64 4, ptr %12) #6
  %50 = load ptr, ptr %6, align 8
  ret ptr %50
}

; Function Attrs: inlinehint nounwind uwtable
define internal i32 @fdt32_ld(ptr noundef %0) #3 {
  %2 = alloca ptr, align 8
  %3 = alloca ptr, align 8
  store ptr %0, ptr %2, align 8, !tbaa !9
  call void @llvm.lifetime.start.p0(i64 8, ptr %3) #6
  %4 = load ptr, ptr %2, align 8, !tbaa !9
  store ptr %4, ptr %3, align 8, !tbaa !13
  %5 = load ptr, ptr %3, align 8, !tbaa !13
  %6 = getelementptr inbounds i8, ptr %5, i64 0
  %7 = load i8, ptr %6, align 1, !tbaa !15
  %8 = zext i8 %7 to i32
  %9 = shl i32 %8, 24
  %10 = load ptr, ptr %3, align 8, !tbaa !13
  %11 = getelementptr inbounds i8, ptr %10, i64 1
  %12 = load i8, ptr %11, align 1, !tbaa !15
  %13 = zext i8 %12 to i32
  %14 = shl i32 %13, 16
  %15 = or i32 %9, %14
  %16 = load ptr, ptr %3, align 8, !tbaa !13
  %17 = getelementptr inbounds i8, ptr %16, i64 2
  %18 = load i8, ptr %17, align 1, !tbaa !15
  %19 = zext i8 %18 to i32
  %20 = shl i32 %19, 8
  %21 = or i32 %15, %20
  %22 = load ptr, ptr %3, align 8, !tbaa !13
  %23 = getelementptr inbounds i8, ptr %22, i64 3
  %24 = load i8, ptr %23, align 1, !tbaa !15
  %25 = zext i8 %24 to i32
  %26 = or i32 %21, %25
  call void @llvm.lifetime.end.p0(i64 8, ptr %3) #6
  ret i32 %26
}

; Function Attrs: nounwind uwtable
define ptr @fdt_getprop(ptr noundef %0, i32 noundef %1, ptr noundef %2, ptr noundef %3) #0 {
  %5 = alloca ptr, align 8
  %6 = alloca i32, align 4
  %7 = alloca ptr, align 8
  %8 = alloca ptr, align 8
  store ptr %0, ptr %5, align 8, !tbaa !3
  store i32 %1, ptr %6, align 4, !tbaa !7
  store ptr %2, ptr %7, align 8, !tbaa !13
  store ptr %3, ptr %8, align 8, !tbaa !9
  %9 = load ptr, ptr %5, align 8, !tbaa !3
  %10 = load i32, ptr %6, align 4, !tbaa !7
  %11 = load ptr, ptr %7, align 8, !tbaa !13
  %12 = load ptr, ptr %7, align 8, !tbaa !13
  %13 = call i64 @strlen(ptr noundef %12) #7
  %14 = trunc i64 %13 to i32
  %15 = load ptr, ptr %8, align 8, !tbaa !9
  %16 = call ptr @fdt_getprop_namelen(ptr noundef %9, i32 noundef %10, ptr noundef %11, i32 noundef %14, ptr noundef %15)
  ret ptr %16
}

; Function Attrs: nounwind uwtable
define i32 @fdt_get_phandle(ptr noundef %0, i32 noundef %1) #0 {
  %3 = alloca i32, align 4
  %4 = alloca ptr, align 8
  %5 = alloca i32, align 4
  %6 = alloca ptr, align 8
  %7 = alloca i32, align 4
  %8 = alloca i32, align 4
  store ptr %0, ptr %4, align 8, !tbaa !3
  store i32 %1, ptr %5, align 4, !tbaa !7
  call void @llvm.lifetime.start.p0(i64 8, ptr %6) #6
  call void @llvm.lifetime.start.p0(i64 4, ptr %7) #6
  %9 = load ptr, ptr %4, align 8, !tbaa !3
  %10 = load i32, ptr %5, align 4, !tbaa !7
  %11 = call ptr @fdt_getprop(ptr noundef %9, i32 noundef %10, ptr noundef @.str, ptr noundef %7)
  store ptr %11, ptr %6, align 8, !tbaa !9
  %12 = load ptr, ptr %6, align 8, !tbaa !9
  %13 = icmp ne ptr %12, null
  br i1 %13, label %14, label %18

14:                                               ; preds = %2
  %15 = load i32, ptr %7, align 4, !tbaa !7
  %16 = sext i32 %15 to i64
  %17 = icmp ne i64 %16, 4
  br i1 %17, label %18, label %30

18:                                               ; preds = %14, %2
  %19 = load ptr, ptr %4, align 8, !tbaa !3
  %20 = load i32, ptr %5, align 4, !tbaa !7
  %21 = call ptr @fdt_getprop(ptr noundef %19, i32 noundef %20, ptr noundef @.str.1, ptr noundef %7)
  store ptr %21, ptr %6, align 8, !tbaa !9
  %22 = load ptr, ptr %6, align 8, !tbaa !9
  %23 = icmp ne ptr %22, null
  br i1 %23, label %24, label %28

24:                                               ; preds = %18
  %25 = load i32, ptr %7, align 4, !tbaa !7
  %26 = sext i32 %25 to i64
  %27 = icmp ne i64 %26, 4
  br i1 %27, label %28, label %29

28:                                               ; preds = %24, %18
  store i32 0, ptr %3, align 4
  store i32 1, ptr %8, align 4
  br label %33

29:                                               ; preds = %24
  br label %30

30:                                               ; preds = %29, %14
  %31 = load ptr, ptr %6, align 8, !tbaa !9
  %32 = call i32 @fdt32_ld(ptr noundef %31)
  store i32 %32, ptr %3, align 4
  store i32 1, ptr %8, align 4
  br label %33

33:                                               ; preds = %30, %28
  call void @llvm.lifetime.end.p0(i64 4, ptr %7) #6
  call void @llvm.lifetime.end.p0(i64 8, ptr %6) #6
  %34 = load i32, ptr %3, align 4
  ret i32 %34
}