; Function Attrs: nounwind uwtable
define i32 @fdt_get_phandle(ptr noundef %0, i32 noundef %1) local_unnamed_addr #0 {
  %3 = alloca i32, align 4
  %4 = alloca i32, align 4
  %5 = alloca i32, align 4
  call void @llvm.lifetime.start.p0(i64 4, ptr nonnull %5) #9
  call void @llvm.lifetime.start.p0(i64 4, ptr nonnull %4) #9
  %6 = call fastcc ptr @fdt_get_property_namelen_(ptr noundef %0, i32 noundef %1, ptr noundef nonnull readonly @.str, i32 noundef 7, ptr noundef nonnull %5, ptr noundef nonnull %4)
  %.not.i.i = icmp eq ptr %6, null
  br i1 %.not.i.i, label %fdt_getprop.exit.thread, label %7

fdt_getprop.exit.thread:                          ; preds = %2
  call void @llvm.lifetime.end.p0(i64 4, ptr nonnull %4) #9
  br label %53

7:                                                ; preds = %2
  %8 = getelementptr inbounds nuw i8, ptr %0, i64 20
  %9 = load i8, ptr %8, align 1, !tbaa !3
  %10 = zext i8 %9 to i32
  %11 = shl nuw i32 %10, 24
  %12 = getelementptr inbounds nuw i8, ptr %0, i64 21
  %13 = load i8, ptr %12, align 1, !tbaa !3
  %14 = zext i8 %13 to i32
  %15 = shl nuw nsw i32 %14, 16
  %16 = or disjoint i32 %15, %11
  %17 = getelementptr inbounds nuw i8, ptr %0, i64 22
  %18 = load i8, ptr %17, align 1, !tbaa !3
  %19 = zext i8 %18 to i32
  %20 = shl nuw nsw i32 %19, 8
  %21 = or disjoint i32 %16, %20
  %22 = getelementptr inbounds nuw i8, ptr %0, i64 23
  %23 = load i8, ptr %22, align 1, !tbaa !3
  %24 = zext i8 %23 to i32
  %25 = or disjoint i32 %21, %24
  %26 = icmp ult i32 %25, 16
  br i1 %26, label %27, label %50

27:                                               ; preds = %7
  %28 = load i32, ptr %4, align 4, !tbaa !6
  %29 = and i32 %28, 7
  %.not11.i.i = icmp eq i32 %29, 4
  br i1 %.not11.i.i, label %50, label %30

30:                                               ; preds = %27
  %31 = getelementptr inbounds nuw i8, ptr %6, i64 4
  %32 = load i8, ptr %31, align 1, !tbaa !3
  %33 = zext i8 %32 to i32
  %34 = shl nuw i32 %33, 24
  %35 = getelementptr inbounds nuw i8, ptr %6, i64 5
  %36 = load i8, ptr %35, align 1, !tbaa !3
  %37 = zext i8 %36 to i32
  %38 = shl nuw nsw i32 %37, 16
  %39 = or disjoint i32 %38, %34
  %40 = getelementptr inbounds nuw i8, ptr %6, i64 6
  %41 = load i8, ptr %40, align 1, !tbaa !3
  %42 = zext i8 %41 to i32
  %43 = shl nuw nsw i32 %42, 8
  %44 = or disjoint i32 %39, %43
  %45 = getelementptr inbounds nuw i8, ptr %6, i64 7
  %46 = load i8, ptr %45, align 1, !tbaa !3
  %47 = zext i8 %46 to i32
  %48 = or disjoint i32 %44, %47
  %49 = icmp ugt i32 %48, 7
  br i1 %49, label %fdt_getprop.exit, label %50

50:                                               ; preds = %30, %27, %7
  br label %fdt_getprop.exit

fdt_getprop.exit:                                 ; preds = %30, %50
  %.sink = phi i64 [ 12, %50 ], [ 16, %30 ]
  %51 = getelementptr inbounds nuw i8, ptr %6, i64 %.sink
  call void @llvm.lifetime.end.p0(i64 4, ptr nonnull %4) #9
  %52 = load i32, ptr %5, align 4
  %.not = icmp eq i32 %52, 4
  br i1 %.not, label %101, label %53

53:                                               ; preds = %fdt_getprop.exit.thread, %fdt_getprop.exit
  call void @llvm.lifetime.start.p0(i64 4, ptr nonnull %3) #9
  %54 = call fastcc ptr @fdt_get_property_namelen_(ptr noundef %0, i32 noundef %1, ptr noundef nonnull readonly @.str.1, i32 noundef 13, ptr noundef nonnull %5, ptr noundef nonnull %3)
  %.not.i.i15 = icmp eq ptr %54, null
  br i1 %.not.i.i15, label %fdt_getprop.exit18.thread, label %55

fdt_getprop.exit18.thread:                        ; preds = %53
  call void @llvm.lifetime.end.p0(i64 4, ptr nonnull %3) #9
  br label %119

55:                                               ; preds = %53
  %56 = getelementptr inbounds nuw i8, ptr %0, i64 20
  %57 = load i8, ptr %56, align 1, !tbaa !3
  %58 = zext i8 %57 to i32
  %59 = shl nuw i32 %58, 24
  %60 = getelementptr inbounds nuw i8, ptr %0, i64 21
  %61 = load i8, ptr %60, align 1, !tbaa !3
  %62 = zext i8 %61 to i32
  %63 = shl nuw nsw i32 %62, 16
  %64 = or disjoint i32 %63, %59
  %65 = getelementptr inbounds nuw i8, ptr %0, i64 22
  %66 = load i8, ptr %65, align 1, !tbaa !3
  %67 = zext i8 %66 to i32
  %68 = shl nuw nsw i32 %67, 8
  %69 = or disjoint i32 %64, %68
  %70 = getelementptr inbounds nuw i8, ptr %0, i64 23
  %71 = load i8, ptr %70, align 1, !tbaa !3
  %72 = zext i8 %71 to i32
  %73 = or disjoint i32 %69, %72
  %74 = icmp ult i32 %73, 16
  br i1 %74, label %75, label %98

75:                                               ; preds = %55
  %76 = load i32, ptr %3, align 4, !tbaa !6
  %77 = and i32 %76, 7
  %.not11.i.i17 = icmp eq i32 %77, 4
  br i1 %.not11.i.i17, label %98, label %78

78:                                               ; preds = %75
  %79 = getelementptr inbounds nuw i8, ptr %54, i64 4
  %80 = load i8, ptr %79, align 1, !tbaa !3
  %81 = zext i8 %80 to i32
  %82 = shl nuw i32 %81, 24
  %83 = getelementptr inbounds nuw i8, ptr %54, i64 5
  %84 = load i8, ptr %83, align 1, !tbaa !3
  %85 = zext i8 %84 to i32
  %86 = shl nuw nsw i32 %85, 16
  %87 = or disjoint i32 %86, %82
  %88 = getelementptr inbounds nuw i8, ptr %54, i64 6
  %89 = load i8, ptr %88, align 1, !tbaa !3
  %90 = zext i8 %89 to i32
  %91 = shl nuw nsw i32 %90, 8
  %92 = or disjoint i32 %87, %91
  %93 = getelementptr inbounds nuw i8, ptr %54, i64 7
  %94 = load i8, ptr %93, align 1, !tbaa !3
  %95 = zext i8 %94 to i32
  %96 = or disjoint i32 %92, %95
  %97 = icmp ugt i32 %96, 7
  br i1 %97, label %fdt_getprop.exit18, label %98

98:                                               ; preds = %78, %75, %55
  br label %fdt_getprop.exit18

fdt_getprop.exit18:                               ; preds = %78, %98
  %.sink24 = phi i64 [ 12, %98 ], [ 16, %78 ]
  %99 = getelementptr inbounds nuw i8, ptr %54, i64 %.sink24
  call void @llvm.lifetime.end.p0(i64 4, ptr nonnull %3) #9
  %100 = load i32, ptr %5, align 4
  %.not23 = icmp eq i32 %100, 4
  br i1 %.not23, label %101, label %119

101:                                              ; preds = %fdt_getprop.exit18, %fdt_getprop.exit
  %.0 = phi ptr [ %99, %fdt_getprop.exit18 ], [ %51, %fdt_getprop.exit ]
  %102 = load i8, ptr %.0, align 1, !tbaa !3
  %103 = zext i8 %102 to i32
  %104 = shl nuw i32 %103, 24
  %105 = getelementptr inbounds nuw i8, ptr %.0, i64 1
  %106 = load i8, ptr %105, align 1, !tbaa !3
  %107 = zext i8 %106 to i32
  %108 = shl nuw nsw i32 %107, 16
  %109 = or disjoint i32 %108, %104
  %110 = getelementptr inbounds nuw i8, ptr %.0, i64 2
  %111 = load i8, ptr %110, align 1, !tbaa !3
  %112 = zext i8 %111 to i32
  %113 = shl nuw nsw i32 %112, 8
  %114 = or disjoint i32 %109, %113
  %115 = getelementptr inbounds nuw i8, ptr %.0, i64 3
  %116 = load i8, ptr %115, align 1, !tbaa !3
  %117 = zext i8 %116 to i32
  %118 = or disjoint i32 %114, %117
  br label %119

119:                                              ; preds = %fdt_getprop.exit18.thread, %fdt_getprop.exit18, %101
  %.012 = phi i32 [ %118, %101 ], [ 0, %fdt_getprop.exit18 ], [ 0, %fdt_getprop.exit18.thread ]
  call void @llvm.lifetime.end.p0(i64 4, ptr nonnull %5) #9
  ret i32 %.012
}